target datalayout = "e-m:e-p270:32:32-p271:32:32-p272:64:64-i64:64-i128:128-f80:128-n8:16:32:64-S128"
target triple = "x86_64-pc-linux-gnu"

%struct.blake2s_state__ = type { [8 x i32], [2 x i32], [2 x i32], [64 x i8], i64, i64, i8 }
%struct.blake2s_param__ = type { i8, i8, i8, i8, i32, i32, i16, i8, i8, [8 x i8], [8 x i8] }

@blake2s_IV = internal constant [8 x i32] [i32 1779033703, i32 -1150833019, i32 1013904242, i32 -1521486534, i32 1359893119, i32 -1694144372, i32 528734635, i32 1541459225], align 16

; Function Attrs: inlinehint nounwind uwtable
define internal i32 @load32(ptr noundef %0) #2 {
  %2 = alloca ptr, align 8
  %3 = alloca ptr, align 8
  store ptr %0, ptr %2, align 8, !tbaa !25
  call void @llvm.lifetime.start.p0(i64 8, ptr %3) #6
  %4 = load ptr, ptr %2, align 8, !tbaa !25
  store ptr %4, ptr %3, align 8, !tbaa !11
  %5 = load ptr, ptr %3, align 8, !tbaa !11
  %6 = getelementptr inbounds i8, ptr %5, i64 0
  %7 = load i8, ptr %6, align 1, !tbaa !26
  %8 = zext i8 %7 to i32
  %9 = shl i32 %8, 0
  %10 = load ptr, ptr %3, align 8, !tbaa !11
  %11 = getelementptr inbounds i8, ptr %10, i64 1
  %12 = load i8, ptr %11, align 1, !tbaa !26
  %13 = zext i8 %12 to i32
  %14 = shl i32 %13, 8
  %15 = or i32 %9, %14
  %16 = load ptr, ptr %3, align 8, !tbaa !11
  %17 = getelementptr inbounds i8, ptr %16, i64 2
  %18 = load i8, ptr %17, align 1, !tbaa !26
  %19 = zext i8 %18 to i32
  %20 = shl i32 %19, 16
  %21 = or i32 %15, %20
  %22 = load ptr, ptr %3, align 8, !tbaa !11
  %23 = getelementptr inbounds i8, ptr %22, i64 3
  %24 = load i8, ptr %23, align 1, !tbaa !26
  %25 = zext i8 %24 to i32
  %26 = shl i32 %25, 24
  %27 = or i32 %21, %26
  call void @llvm.lifetime.end.p0(i64 8, ptr %3) #6
  ret i32 %27
}

; Function Attrs: nounwind uwtable
define internal void @blake2s_init0(ptr noundef %0) #0 {
  %2 = alloca ptr, align 8
  %3 = alloca i64, align 8
  store ptr %0, ptr %2, align 8, !tbaa !4
  call void @llvm.lifetime.start.p0(i64 8, ptr %3) #6
  %4 = load ptr, ptr %2, align 8, !tbaa !4
  call void @llvm.memset.p0.i64(ptr align 8 %4, i8 0, i64 136, i1 false)
  store i64 0, ptr %3, align 8, !tbaa !13
  br label %5

5:                                                ; preds = %16, %1
  %6 = load i64, ptr %3, align 8, !tbaa !13
  %7 = icmp ult i64 %6, 8
  br i1 %7, label %8, label %19

8:                                                ; preds = %5
  %9 = load i64, ptr %3, align 8, !tbaa !13
  %10 = getelementptr inbounds nuw [8 x i32], ptr @blake2s_IV, i64 0, i64 %9
  %11 = load i32, ptr %10, align 4, !tbaa !15
  %12 = load ptr, ptr %2, align 8, !tbaa !4
  %13 = getelementptr inbounds nuw %struct.blake2s_state__, ptr %12, i32 0, i32 0
  %14 = load i64, ptr %3, align 8, !tbaa !13
  %15 = getelementptr inbounds nuw [8 x i32], ptr %13, i64 0, i64 %14
  store i32 %11, ptr %15, align 4, !tbaa !15
  br label %16

16:                                               ; preds = %8
  %17 = load i64, ptr %3, align 8, !tbaa !13
  %18 = add i64 %17, 1
  store i64 %18, ptr %3, align 8, !tbaa !13
  br label %5, !llvm.loop !24

19:                                               ; preds = %5
  call void @llvm.lifetime.end.p0(i64 8, ptr %3) #6
  ret void
}

; Function Attrs: nounwind uwtable
define dso_local i32 @blake2s_init_param(ptr noundef %0, ptr noundef %1) #0 {
  %3 = alloca ptr, align 8
  %4 = alloca ptr, align 8
  %5 = alloca ptr, align 8
  %6 = alloca i64, align 8
  store ptr %0, ptr %3, align 8, !tbaa !4
  store ptr %1, ptr %4, align 8, !tbaa !9
  call void @llvm.lifetime.start.p0(i64 8, ptr %5) #6
  %7 = load ptr, ptr %4, align 8, !tbaa !9
  store ptr %7, ptr %5, align 8, !tbaa !11
  call void @llvm.lifetime.start.p0(i64 8, ptr %6) #6
  %8 = load ptr, ptr %3, align 8, !tbaa !4
  call void @blake2s_init0(ptr noundef %8)
  store i64 0, ptr %6, align 8, !tbaa !13
  br label %9

9:                                                ; preds = %24, %2
  %10 = load i64, ptr %6, align 8, !tbaa !13
  %11 = icmp ult i64 %10, 8
  br i1 %11, label %12, label %27

12:                                               ; preds = %9
  %13 = load ptr, ptr %5, align 8, !tbaa !11
  %14 = load i64, ptr %6, align 8, !tbaa !13
  %15 = mul i64 %14, 4
  %16 = getelementptr inbounds nuw i8, ptr %13, i64 %15
  %17 = call i32 @load32(ptr noundef %16)
  %18 = load ptr, ptr %3, align 8, !tbaa !4
  %19 = getelementptr inbounds nuw %struct.blake2s_state__, ptr %18, i32 0, i32 0
  %20 = load i64, ptr %6, align 8, !tbaa !13
  %21 = getelementptr inbounds nuw [8 x i32], ptr %19, i64 0, i64 %20
  %22 = load i32, ptr %21, align 4, !tbaa !15
  %23 = xor i32 %22, %17
  store i32 %23, ptr %21, align 4, !tbaa !15
  br label %24

24:                                               ; preds = %12
  %25 = load i64, ptr %6, align 8, !tbaa !13
  %26 = add i64 %25, 1
  store i64 %26, ptr %6, align 8, !tbaa !13
  br label %9, !llvm.loop !17

27:                                               ; preds = %9
  %28 = load ptr, ptr %4, align 8, !tbaa !9
  %29 = getelementptr inbounds nuw %struct.blake2s_param__, ptr %28, i32 0, i32 0
  %30 = load i8, ptr %29, align 1, !tbaa !19
  %31 = zext i8 %30 to i64
  %32 = load ptr, ptr %3, align 8, !tbaa !4
  %33 = getelementptr inbounds nuw %struct.blake2s_state__, ptr %32, i32 0, i32 5
  store i64 %31, ptr %33, align 8, !tbaa !22
  call void @llvm.lifetime.end.p0(i64 8, ptr %6) #6
  call void @llvm.lifetime.end.p0(i64 8, ptr %5) #6
  ret i32 0
}