; Function Attrs: nofree norecurse nosync nounwind memory(argmem: readwrite) uwtable
define dso_local noundef i32 @blake2s_init_param(ptr noundef captures(none) initializes((0, 136)) %0, ptr noundef readonly captures(none) %1) local_unnamed_addr #0 {
  %3 = getelementptr i8, ptr %0, i64 32
  tail call void @llvm.memset.p0.i64(ptr noundef nonnull align 8 dereferenceable(104) %3, i8 0, i64 104, i1 false)
  tail call void @llvm.memcpy.p0.p0.i64(ptr noundef nonnull align 4 dereferenceable(32) %0, ptr noundef nonnull align 16 dereferenceable(32) @blake2s_IV, i64 32, i1 false), !tbaa !4
  br label %4

4:                                                ; preds = %2, %4
  %.09 = phi i64 [ 0, %2 ], [ %11, %4 ]
  %5 = shl nuw nsw i64 %.09, 2
  %6 = getelementptr inbounds nuw i8, ptr %1, i64 %5
  %7 = load i32, ptr %6, align 1
  %8 = getelementptr inbounds nuw [8 x i32], ptr %0, i64 0, i64 %.09
  %9 = load i32, ptr %8, align 4, !tbaa !4
  %10 = xor i32 %9, %7
  store i32 %10, ptr %8, align 4, !tbaa !4
  %11 = add nuw nsw i64 %.09, 1
  %exitcond.not = icmp eq i64 %11, 8
  br i1 %exitcond.not, label %12, label %4, !llvm.loop !8

12:                                               ; preds = %4
  %13 = load i8, ptr %1, align 1, !tbaa !10
  %14 = zext i8 %13 to i64
  %15 = getelementptr inbounds nuw i8, ptr %0, i64 120
  store i64 %14, ptr %15, align 8, !tbaa !13
  ret i32 0
}